; Function Attrs: mustprogress nounwind uwtable
define dso_local void @_ZNK4llvm11ms_demangle18ThunkSignatureNode9outputPreERNS_16itanium_demangle12OutputBufferENS0_11OutputFlagsE(ptr nocapture noundef nonnull readonly align 8 dereferenceable(76) %0, ptr noundef nonnull align 8 dereferenceable(36) %1, i32 noundef %2) unnamed_addr #0 align 2 {
  %4 = getelementptr inbounds nuw i8, ptr %1, i64 8
  %5 = load i64, ptr %4, align 8
  %6 = add i64 %5, 9
  %7 = getelementptr inbounds nuw i8, ptr %1, i64 16
  %8 = load i64, ptr %7, align 8
  %9 = icmp ugt i64 %6, %8
  %.pre.i.i = load ptr, ptr %1, align 8
  br i1 %9, label %10, label %_ZN4llvm16itanium_demangle12OutputBuffer4growEm.exit.i.i

10:                                               ; preds = %3
  %11 = add i64 %5, 1001
  %12 = shl i64 %8, 1
  %spec.select.i.i.i = tail call i64 @llvm.umax.i64(i64 %12, i64 %11)
  store i64 %spec.select.i.i.i, ptr %7, align 8
  %13 = tail call ptr @realloc(ptr noundef %.pre.i.i, i64 noundef %spec.select.i.i.i) #16
  store ptr %13, ptr %1, align 8
  %14 = icmp eq ptr %13, null
  br i1 %14, label %15, label %._ZN4llvm16itanium_demangle12OutputBuffer4growEm.exit_crit_edge.i.i

._ZN4llvm16itanium_demangle12OutputBuffer4growEm.exit_crit_edge.i.i: ; preds = %10
  %.pre4.i.i = load i64, ptr %4, align 8
  br label %_ZN4llvm16itanium_demangle12OutputBuffer4growEm.exit.i.i

15:                                               ; preds = %10
  tail call void @abort() #17
  unreachable

_ZN4llvm16itanium_demangle12OutputBuffer4growEm.exit.i.i: ; preds = %._ZN4llvm16itanium_demangle12OutputBuffer4growEm.exit_crit_edge.i.i, %3
  %16 = phi i64 [ %5, %3 ], [ %.pre4.i.i, %._ZN4llvm16itanium_demangle12OutputBuffer4growEm.exit_crit_edge.i.i ]
  %17 = phi ptr [ %.pre.i.i, %3 ], [ %13, %._ZN4llvm16itanium_demangle12OutputBuffer4growEm.exit_crit_edge.i.i ]
  %18 = getelementptr inbounds i8, ptr %17, i64 %16
  tail call void @llvm.memcpy.p0.p0.i64(ptr noundef nonnull align 1 dereferenceable(9) %18, ptr noundef nonnull align 1 dereferenceable(9) @.str.122, i64 9, i1 false)
  %19 = load i64, ptr %4, align 8
  %20 = add i64 %19, 9
  store i64 %20, ptr %4, align 8
  tail call void @_ZNK4llvm11ms_demangle21FunctionSignatureNode9outputPreERNS_16itanium_demangle12OutputBufferENS0_11OutputFlagsE(ptr noundef nonnull align 8 dereferenceable(57) %0, ptr noundef nonnull align 8 dereferenceable(36) %1, i32 noundef %2)
  ret void
}